; Function Attrs: mustprogress nofree norecurse nosync nounwind willreturn memory(readwrite, inaccessiblemem: none) uwtable
define void @Aig_MmStepEntryRecycle(ptr noundef readonly captures(none) %0, ptr noundef %1, i32 noundef %2) local_unnamed_addr #10 {
  %4 = icmp eq i32 %2, 0
  br i1 %4, label %20, label %5

5:                                                ; preds = %3
  %6 = getelementptr inbounds nuw i8, ptr %0, i64 16
  %7 = load i32, ptr %6, align 8, !tbaa !46
  %8 = icmp sgt i32 %2, %7
  br i1 %8, label %20, label %9

9:                                                ; preds = %5
  %10 = getelementptr inbounds nuw i8, ptr %0, i64 24
  %11 = load ptr, ptr %10, align 8, !tbaa !47
  %12 = sext i32 %2 to i64
  %13 = getelementptr inbounds ptr, ptr %11, i64 %12
  %14 = load ptr, ptr %13, align 8, !tbaa !43
  %15 = getelementptr inbounds nuw i8, ptr %14, i64 8
  %16 = load i32, ptr %15, align 8, !tbaa !15
  %17 = add nsw i32 %16, -1
  store i32 %17, ptr %15, align 8, !tbaa !15
  %18 = getelementptr inbounds nuw i8, ptr %14, i64 16
  %19 = load ptr, ptr %18, align 8, !tbaa !22
  store ptr %19, ptr %1, align 8, !tbaa !18
  store ptr %1, ptr %18, align 8, !tbaa !22
  br label %20

20:                                               ; preds = %5, %3, %9
  ret void
}